target datalayout = "e-m:e-p270:32:32-p271:32:32-p272:64:64-i64:64-i128:128-f80:128-n8:16:32:64-S128"
target triple = "x86_64-pc-linux-gnu"

%"class.std::_Function_base" = type { %"union.std::_Any_data", ptr }
%"union.std::_Any_data" = type { %"union.std::_Nocopy_types" }
%"union.std::_Nocopy_types" = type { { i64, i64 } }
%"struct.folly::test::DSchedThreadId" = type { i32 }
%"struct.folly::test::(anonymous namespace)::PerThreadState" = type { ptr, ptr, i8, %"struct.folly::test::DSchedThreadId", %"class.std::function.59" }
%"class.std::function.59" = type { %"class.std::_Function_base", ptr }
%"struct.folly::SingletonThreadLocal<folly::test::(anonymous namespace)::PerThreadState>::ObjectWrapper" = type { %"struct.folly::test::(anonymous namespace)::PerThreadState" }
%"class.folly::detail::ScopeGuardImpl" = type { %"class.folly::detail::ScopeGuardImplBase", %class.anon.168 }
%"class.folly::detail::ScopeGuardImplBase" = type { i8 }
%class.anon.168 = type { ptr }

; Function Attrs: mustprogress nounwind uwtable
define linkonce_odr void @_ZNSt14_Function_baseD2Ev(ptr noundef nonnull align 8 dereferenceable(24) %0) unnamed_addr #1 comdat align 2 personality ptr @__gxx_personality_v0 {
  %2 = alloca ptr, align 8
  store ptr %0, ptr %2, align 8, !tbaa !15
  %3 = load ptr, ptr %2, align 8
  %4 = getelementptr inbounds nuw %"class.std::_Function_base", ptr %3, i32 0, i32 1
  %5 = load ptr, ptr %4, align 8, !tbaa !18
  %6 = icmp ne ptr %5, null
  br i1 %6, label %7, label %14

7:                                                ; preds = %1
  %8 = getelementptr inbounds nuw %"class.std::_Function_base", ptr %3, i32 0, i32 1
  %9 = load ptr, ptr %8, align 8, !tbaa !18
  %10 = getelementptr inbounds nuw %"class.std::_Function_base", ptr %3, i32 0, i32 0
  %11 = getelementptr inbounds nuw %"class.std::_Function_base", ptr %3, i32 0, i32 0
  %12 = invoke noundef zeroext i1 %9(ptr noundef nonnull align 8 dereferenceable(16) %10, ptr noundef nonnull align 8 dereferenceable(16) %11, i32 noundef 3)
          to label %13 unwind label %15

13:                                               ; preds = %7
  br label %14

14:                                               ; preds = %13, %1
  ret void

15:                                               ; preds = %7
  %16 = landingpad { ptr, i32 }
          catch ptr null
  %17 = extractvalue { ptr, i32 } %16, 0
  call void @__clang_call_terminate(ptr %17) #29
  unreachable
}

; Function Attrs: inlinehint mustprogress nounwind uwtable
define internal void @_ZN5folly4test12_GLOBAL__N_114PerThreadStateD2Ev(ptr noundef nonnull align 8 dereferenceable(56) %0) unnamed_addr #5 align 2 {
  %2 = alloca ptr, align 8
  store ptr %0, ptr %2, align 8, !tbaa !130
  %3 = load ptr, ptr %2, align 8
  %4 = getelementptr inbounds nuw %"struct.folly::test::(anonymous namespace)::PerThreadState", ptr %3, i32 0, i32 4
  call void @_ZNSt14_Function_baseD2Ev(ptr noundef nonnull align 8 dereferenceable(32) %4) #2
  ret void
}

; Function Attrs: inlinehint mustprogress nounwind uwtable
define internal void @_ZN5folly20SingletonThreadLocalINS_4test12_GLOBAL__N_114PerThreadStateENS_6detail10DefaultTagENS4_11DefaultMakeIS3_EEvE13ObjectWrapperD2Ev(ptr noundef nonnull align 8 dereferenceable(56) %0) unnamed_addr #5 align 2 {
  %2 = alloca ptr, align 8
  store ptr %0, ptr %2, align 8, !tbaa !297
  %3 = load ptr, ptr %2, align 8
  %4 = getelementptr inbounds nuw %"struct.folly::SingletonThreadLocal<folly::test::(anonymous namespace)::PerThreadState>::ObjectWrapper", ptr %3, i32 0, i32 0
  call void @_ZN5folly4test12_GLOBAL__N_114PerThreadStateD2Ev(ptr noundef nonnull align 8 dereferenceable(56) %4) #2
  ret void
}

; Function Attrs: inlinehint mustprogress nounwind uwtable
define internal void @_ZN5folly20SingletonThreadLocalINS_4test12_GLOBAL__N_114PerThreadStateENS_6detail10DefaultTagENS4_11DefaultMakeIS3_EEvE7WrapperD2Ev(ptr noundef nonnull align 8 dereferenceable(168) %0) unnamed_addr #5 align 2 {
  %2 = alloca ptr, align 8
  store ptr %0, ptr %2, align 8, !tbaa !260
  %3 = load ptr, ptr %2, align 8
  %4 = getelementptr inbounds i8, ptr %3, i64 56
  call void @_ZN5folly6detail25SingletonThreadLocalState8TrackingD2Ev(ptr noundef nonnull align 8 dereferenceable(112) %4) #2
  call void @_ZN5folly20SingletonThreadLocalINS_4test12_GLOBAL__N_114PerThreadStateENS_6detail10DefaultTagENS4_11DefaultMakeIS3_EEvE13ObjectWrapperD2Ev(ptr noundef nonnull align 8 dereferenceable(56) %3) #2
  ret void
}

; Function Attrs: alwaysinline mustprogress nounwind uwtable
define linkonce_odr hidden void @_ZN5folly11invoke_coldIPDoFvvEJES1_TnNSt9enable_ifIXsr3std11is_functionIT1_EE5valueEiE4typeELi0EvEET3_OT_DpOT0_(ptr noundef nonnull align 8 dereferenceable(8) %0) #19 comdat {
  %2 = alloca ptr, align 8
  store ptr %0, ptr %2, align 8, !tbaa !117
  %3 = load ptr, ptr %2, align 8, !tbaa !117
  %4 = load ptr, ptr %3, align 8, !tbaa !117
  call void %4() #2
  ret void
}

; Function Attrs: inlinehint mustprogress nounwind uwtable
define internal void @_ZZN5folly14ThreadLocalPtrINS_20SingletonThreadLocalINS_4test12_GLOBAL__N_114PerThreadStateENS_6detail10DefaultTagENS5_11DefaultMakeIS4_EEvE7WrapperEvvE5resetEPSA_ENKUlvE_clEv(ptr noundef nonnull align 8 dereferenceable(8) %0) #5 align 2 {
  %2 = alloca ptr, align 8
  store ptr %0, ptr %2, align 8, !tbaa !117
  %3 = load ptr, ptr %2, align 8
  %4 = getelementptr inbounds nuw %class.anon.168, ptr %3, i32 0, i32 0
  %5 = load ptr, ptr %4, align 8, !tbaa !736
  %6 = load ptr, ptr %5, align 8, !tbaa !260
  %7 = icmp eq ptr %6, null
  br i1 %7, label %9, label %8

8:                                                ; preds = %1
  call void @_ZN5folly20SingletonThreadLocalINS_4test12_GLOBAL__N_114PerThreadStateENS_6detail10DefaultTagENS4_11DefaultMakeIS3_EEvE7WrapperD2Ev(ptr noundef nonnull align 8 dereferenceable(168) %6) #2
  call void @_ZdlPvm(ptr noundef %6, i64 noundef 168) #30
  br label %9

9:                                                ; preds = %8, %1
  ret void
}

; Function Attrs: alwaysinline mustprogress nounwind uwtable
define internal void @_ZN5folly15catch_exceptionIRZNS_14ThreadLocalPtrINS_20SingletonThreadLocalINS_4test12_GLOBAL__N_114PerThreadStateENS_6detail10DefaultTagENS6_11DefaultMakeIS5_EEvE7WrapperEvvE5resetEPSB_EUlvE_PDoFvvEJEvEET2_OT_OT0_DpOT1_(ptr noundef nonnull align 8 dereferenceable(8) %0, ptr noundef nonnull align 8 dereferenceable(8) %1) #19 personality ptr @__gxx_personality_v0 {
  %3 = alloca ptr, align 8
  %4 = alloca ptr, align 8
  %5 = alloca ptr, align 8
  %6 = alloca i32, align 4
  store ptr %0, ptr %3, align 8, !tbaa !117
  store ptr %1, ptr %4, align 8, !tbaa !117
  %7 = load ptr, ptr %3, align 8, !tbaa !117
  invoke void @_ZZN5folly14ThreadLocalPtrINS_20SingletonThreadLocalINS_4test12_GLOBAL__N_114PerThreadStateENS_6detail10DefaultTagENS5_11DefaultMakeIS4_EEvE7WrapperEvvE5resetEPSA_ENKUlvE_clEv(ptr noundef nonnull align 8 dereferenceable(8) %7)
          to label %8 unwind label %9

8:                                                ; preds = %2
  br label %18

9:                                                ; preds = %2
  %10 = landingpad { ptr, i32 }
          catch ptr null
  %11 = extractvalue { ptr, i32 } %10, 0
  store ptr %11, ptr %5, align 8
  %12 = extractvalue { ptr, i32 } %10, 1
  store i32 %12, ptr %6, align 4
  br label %13

13:                                               ; preds = %9
  %14 = load ptr, ptr %5, align 8
  %15 = call ptr @__cxa_begin_catch(ptr %14) #2
  %16 = load ptr, ptr %4, align 8, !tbaa !117
  call void @_ZN5folly11invoke_coldIPDoFvvEJES1_TnNSt9enable_ifIXsr3std11is_functionIT1_EE5valueEiE4typeELi0EvEET3_OT_DpOT0_(ptr noundef nonnull align 8 dereferenceable(8) %16) #2
  invoke void @__cxa_end_catch()
          to label %17 unwind label %19

17:                                               ; preds = %13
  br label %18

18:                                               ; preds = %8, %17
  ret void

19:                                               ; preds = %13
  %20 = landingpad { ptr, i32 }
          catch ptr null
  %21 = extractvalue { ptr, i32 } %20, 0
  call void @__clang_call_terminate(ptr %21) #29
  unreachable
}

; Function Attrs: mustprogress nounwind uwtable
define internal void @_ZN5folly6detail14ScopeGuardImplIZNS_14ThreadLocalPtrINS_20SingletonThreadLocalINS_4test12_GLOBAL__N_114PerThreadStateENS0_10DefaultTagENS0_11DefaultMakeIS6_EEvE7WrapperEvvE5resetEPSB_EUlvE_Lb1EE7executeEv(ptr noundef nonnull align 8 dereferenceable(16) %0) #1 align 2 {
  %2 = alloca ptr, align 8
  %3 = alloca ptr, align 8
  store ptr %0, ptr %2, align 8, !tbaa !653
  %4 = load ptr, ptr %2, align 8
  %5 = getelementptr inbounds nuw %"class.folly::detail::ScopeGuardImpl", ptr %4, i32 0, i32 1
  call void @llvm.lifetime.start.p0(i64 8, ptr %3) #2
  store ptr @_ZN5folly6detail18ScopeGuardImplBase9terminateEv, ptr %3, align 8, !tbaa !117
  call void @_ZN5folly15catch_exceptionIRZNS_14ThreadLocalPtrINS_20SingletonThreadLocalINS_4test12_GLOBAL__N_114PerThreadStateENS_6detail10DefaultTagENS6_11DefaultMakeIS5_EEvE7WrapperEvvE5resetEPSB_EUlvE_PDoFvvEJEvEET2_OT_OT0_DpOT1_(ptr noundef nonnull align 8 dereferenceable(8) %5, ptr noundef nonnull align 8 dereferenceable(8) %3) #2
  call void @llvm.lifetime.end.p0(i64 8, ptr %3) #2
  ret void
}

; Function Attrs: mustprogress nounwind uwtable
define internal void @_ZN5folly6detail14ScopeGuardImplIZNS_14ThreadLocalPtrINS_20SingletonThreadLocalINS_4test12_GLOBAL__N_114PerThreadStateENS0_10DefaultTagENS0_11DefaultMakeIS6_EEvE7WrapperEvvE5resetEPSB_EUlvE_Lb1EED2Ev(ptr noundef nonnull align 8 dereferenceable(16) %0) unnamed_addr #1 align 2 {
  %2 = alloca ptr, align 8
  store ptr %0, ptr %2, align 8, !tbaa !653
  %3 = load ptr, ptr %2, align 8
  %4 = getelementptr inbounds nuw %"class.folly::detail::ScopeGuardImplBase", ptr %3, i32 0, i32 0
  %5 = load i8, ptr %4, align 8, !tbaa !651, !range !363, !noundef !364
  %6 = trunc i8 %5 to i1
  br i1 %6, label %8, label %7

7:                                                ; preds = %1
  call void @_ZN5folly6detail14ScopeGuardImplIZNS_14ThreadLocalPtrINS_20SingletonThreadLocalINS_4test12_GLOBAL__N_114PerThreadStateENS0_10DefaultTagENS0_11DefaultMakeIS6_EEvE7WrapperEvvE5resetEPSB_EUlvE_Lb1EE7executeEv(ptr noundef nonnull align 8 dereferenceable(16) %3) #2
  br label %8

8:                                                ; preds = %7, %1
  ret void
}