; Function Attrs: mustprogress nounwind uwtable
define internal fastcc void @_ZN5folly6detail14ScopeGuardImplIZNS_14ThreadLocalPtrINS_20SingletonThreadLocalINS_4test12_GLOBAL__N_114PerThreadStateENS0_10DefaultTagENS0_11DefaultMakeIS6_EEvE7WrapperEvvE5resetEPSB_EUlvE_Lb1EED2Ev(i8 %.0.val, ptr readonly captures(none) %.8.val) unnamed_addr #14 align 2 personality ptr @__gxx_personality_v0 {
  %1 = trunc nuw i8 %.0.val to i1
  br i1 %1, label %_ZN5folly6detail14ScopeGuardImplIZNS_14ThreadLocalPtrINS_20SingletonThreadLocalINS_4test12_GLOBAL__N_114PerThreadStateENS0_10DefaultTagENS0_11DefaultMakeIS6_EEvE7WrapperEvvE5resetEPSB_EUlvE_Lb1EE7executeEv.exit, label %2

2:                                                ; preds = %0
  %.val.val = load ptr, ptr %.8.val, align 8, !tbaa !141
  %3 = icmp eq ptr %.val.val, null
  br i1 %3, label %_ZN5folly6detail14ScopeGuardImplIZNS_14ThreadLocalPtrINS_20SingletonThreadLocalINS_4test12_GLOBAL__N_114PerThreadStateENS0_10DefaultTagENS0_11DefaultMakeIS6_EEvE7WrapperEvvE5resetEPSB_EUlvE_Lb1EE7executeEv.exit, label %4

4:                                                ; preds = %2
  %5 = getelementptr inbounds nuw i8, ptr %.val.val, i64 56
  tail call void @_ZN5folly6detail25SingletonThreadLocalState8TrackingD2Ev(ptr noundef nonnull align 8 dereferenceable(112) %5) #18
  %6 = getelementptr inbounds nuw i8, ptr %.val.val, i64 40
  %7 = load ptr, ptr %6, align 8, !tbaa !63
  %.not.i.i.i.i.i.i = icmp eq ptr %7, null
  br i1 %.not.i.i.i.i.i.i, label %_ZN5folly20SingletonThreadLocalINS_4test12_GLOBAL__N_114PerThreadStateENS_6detail10DefaultTagENS4_11DefaultMakeIS3_EEvE7WrapperD2Ev.exit.i.i, label %8

8:                                                ; preds = %4
  %9 = getelementptr inbounds nuw i8, ptr %.val.val, i64 24
  %10 = invoke noundef zeroext i1 %7(ptr noundef nonnull align 8 dereferenceable(32) %9, ptr noundef nonnull align 8 dereferenceable(32) %9, i32 noundef 3)
          to label %_ZN5folly20SingletonThreadLocalINS_4test12_GLOBAL__N_114PerThreadStateENS_6detail10DefaultTagENS4_11DefaultMakeIS3_EEvE7WrapperD2Ev.exit.i.i unwind label %11

11:                                               ; preds = %8
  %12 = landingpad { ptr, i32 }
          catch ptr null
  %13 = extractvalue { ptr, i32 } %12, 0
  tail call void @__clang_call_terminate(ptr %13) #36
  unreachable

_ZN5folly20SingletonThreadLocalINS_4test12_GLOBAL__N_114PerThreadStateENS_6detail10DefaultTagENS4_11DefaultMakeIS3_EEvE7WrapperD2Ev.exit.i.i: ; preds = %8, %4
  tail call void @_ZdlPvm(ptr noundef nonnull %.val.val, i64 noundef 168) #37
  br label %_ZN5folly6detail14ScopeGuardImplIZNS_14ThreadLocalPtrINS_20SingletonThreadLocalINS_4test12_GLOBAL__N_114PerThreadStateENS0_10DefaultTagENS0_11DefaultMakeIS6_EEvE7WrapperEvvE5resetEPSB_EUlvE_Lb1EE7executeEv.exit

_ZN5folly6detail14ScopeGuardImplIZNS_14ThreadLocalPtrINS_20SingletonThreadLocalINS_4test12_GLOBAL__N_114PerThreadStateENS0_10DefaultTagENS0_11DefaultMakeIS6_EEvE7WrapperEvvE5resetEPSB_EUlvE_Lb1EE7executeEv.exit: ; preds = %_ZN5folly20SingletonThreadLocalINS_4test12_GLOBAL__N_114PerThreadStateENS_6detail10DefaultTagENS4_11DefaultMakeIS3_EEvE7WrapperD2Ev.exit.i.i, %2, %0
  ret void
}